; Function Attrs: mustprogress uwtable
define internal void @_ZN12_GLOBAL__N_19ThreadTwoEPN4absl5MutexEPNS0_7CondVarEPNS0_12NotificationEPb(ptr noundef %mutex, ptr noundef %condvar, ptr noundef %notification, ptr nocapture noundef %state) #6 personality ptr @__gxx_personality_v0 {
entry:
  %ref.tmp2 = alloca %"class.absl::log_internal::LogMessageFatal", align 8
  %ref.tmp12 = alloca %"class.absl::log_internal::LogMessageFatal", align 8
  %0 = load i8, ptr %state, align 1
  %1 = and i8 %0, 1
  %tobool.not.not = icmp eq i8 %1, 0
  br i1 %tobool.not.not, label %cleanup.done, label %cond.false

cond.false:                                       ; preds = %entry
  call void @_ZN4absl12log_internal15LogMessageFatalC1EPKciSt17basic_string_viewIcSt11char_traitsIcEE(ptr noundef nonnull align 8 dereferenceable(16) %ref.tmp2, ptr noundef nonnull @.str, i32 noundef 61, i64 7, ptr nonnull @.str.10) #17
  invoke void @_ZN4absl12log_internal10LogMessage19CopyToEncodedBufferILNS1_10StringTypeE0EEEvSt17basic_string_viewIcSt11char_traitsIcEE(ptr noundef nonnull align 8 dereferenceable(16) %ref.tmp2, i64 22, ptr nonnull @.str.11)
          to label %cleanup.action unwind label %lpad

cleanup.action:                                   ; preds = %cond.false
  call void @_ZN4absl12log_internal15LogMessageFatalD1Ev(ptr noundef nonnull align 8 dereferenceable(16) %ref.tmp2) #14
  unreachable

lpad:                                             ; preds = %cond.false
  %2 = landingpad { ptr, i32 }
          cleanup
  call void @_ZN4absl12log_internal15LogMessageFatalD1Ev(ptr noundef nonnull align 8 dereferenceable(16) %ref.tmp2) #14
  unreachable

cleanup.done:                                     ; preds = %entry
  tail call void @_ZNK4absl12Notification19WaitForNotificationEv(ptr noundef nonnull align 8 dereferenceable(9) %notification)
  %notified_yet_.i = getelementptr inbounds i8, ptr %notification, i64 8
  %3 = load atomic i8, ptr %notified_yet_.i acquire, align 1
  %4 = and i8 %3, 1
  %tobool.i.i.i.i.not = icmp eq i8 %4, 0
  br i1 %tobool.i.i.i.i.not, label %cond.false10, label %cleanup.done22

cond.false10:                                     ; preds = %cleanup.done
  call void @_ZN4absl12log_internal15LogMessageFatalC1EPKciSt17basic_string_viewIcSt11char_traitsIcEE(ptr noundef nonnull align 8 dereferenceable(16) %ref.tmp12, ptr noundef nonnull @.str, i32 noundef 65, i64 31, ptr nonnull @.str.12) #17
  invoke void @_ZN4absl12log_internal10LogMessage19CopyToEncodedBufferILNS1_10StringTypeE0EEEvSt17basic_string_viewIcSt11char_traitsIcEE(ptr noundef nonnull align 8 dereferenceable(16) %ref.tmp12, i64 20, ptr nonnull @.str.9)
          to label %cleanup.action21 unwind label %lpad16

cleanup.action21:                                 ; preds = %cond.false10
  call void @_ZN4absl12log_internal15LogMessageFatalD1Ev(ptr noundef nonnull align 8 dereferenceable(16) %ref.tmp12) #14
  unreachable

lpad16:                                           ; preds = %cond.false10
  %5 = landingpad { ptr, i32 }
          cleanup
  call void @_ZN4absl12log_internal15LogMessageFatalD1Ev(ptr noundef nonnull align 8 dereferenceable(16) %ref.tmp12) #14
  unreachable

cleanup.done22:                                   ; preds = %cleanup.done
  tail call void @_ZN4absl5Mutex4LockEv(ptr noundef nonnull align 8 dereferenceable(8) %mutex)
  store i8 1, ptr %state, align 1
  invoke void @_ZN4absl7CondVar6SignalEv(ptr noundef nonnull align 8 dereferenceable(8) %condvar)
          to label %invoke.cont27 unwind label %lpad26

invoke.cont27:                                    ; preds = %cleanup.done22
  invoke void @_ZN4absl5Mutex6UnlockEv(ptr noundef nonnull align 8 dereferenceable(8) %mutex)
          to label %_ZN4absl9MutexLockD2Ev.exit unwind label %terminate.lpad.i

terminate.lpad.i:                                 ; preds = %invoke.cont27
  %6 = landingpad { ptr, i32 }
          catch ptr null
  %7 = extractvalue { ptr, i32 } %6, 0
  tail call void @__clang_call_terminate(ptr %7) #14
  unreachable

_ZN4absl9MutexLockD2Ev.exit:                      ; preds = %invoke.cont27
  ret void

lpad26:                                           ; preds = %cleanup.done22
  %8 = landingpad { ptr, i32 }
          cleanup
  invoke void @_ZN4absl5Mutex6UnlockEv(ptr noundef nonnull align 8 dereferenceable(8) %mutex)
          to label %_ZN4absl9MutexLockD2Ev.exit7 unwind label %terminate.lpad.i6

terminate.lpad.i6:                                ; preds = %lpad26
  %9 = landingpad { ptr, i32 }
          catch ptr null
  %10 = extractvalue { ptr, i32 } %9, 0
  tail call void @__clang_call_terminate(ptr %10) #14
  unreachable

_ZN4absl9MutexLockD2Ev.exit7:                     ; preds = %lpad26
  resume { ptr, i32 } %8
}